Microchip MPLAB XC8 Compiler V2.35

Linker command line:

-W-3 --edf=/opt/microchip/xc8/v2.35/pic/dat/en_msgs.txt -cn \
  -h+dist/default/production/628A_Digit_Display_Test.X.production.sym \
  --cmf=dist/default/production/628A_Digit_Display_Test.X.production.cmf -z \
  -Q16F628A -o/tmp/xcXLfkMIe --defsym=__MPLAB_BUILD=1 \
  -Mdist/default/production/628A_Digit_Display_Test.X.production.map \
  --md=/tmp/xcXiNCNJK.dat -E1 -ver=XC8 Compiler --acfsm=1493 \
  -ACODE=00h-07FFh -ASTRCODE=00h-07FFh -ASTRING=00h-0FFhx8 \
  -ACONST=00h-0FFhx8 -AENTRY=00h-0FFhx8 -ACOMMON=070h-07Fh \
  -ABANK0=020h-06Fh -ABANK1=0A0h-0EFh -ABANK2=0120h-014Fh \
  -ARAM=020h-06Fh,0A0h-0EFh,0120h-014Fh \
  -AABS1=020h-07Fh,0A0h-0EFh,0120h-014Fh -ASFR0=00h-01Fh -ASFR1=080h-09Fh \
  -ASFR2=0100h-011Fh -ASFR3=0180h-01EFh -ACONFIG=02007h-02007h -DCONFIG=2 \
  -AIDLOC=02000h-02003h -DIDLOC=2 -AEEDATA=00h-07Fh/02100h \
  -peeprom_data=EEDATA -DEEDATA=2 -DCODE=2 -DSTRCODE=2 -DSTRING=2 -DCONST=2 \
  -DENTRY=2 -preset_vec=00h,intentry,init,end_init -ppowerup=CODE \
  -pcinit=CODE -pfunctab=ENTRY -k /tmp/xcXeAiLDa.o \
  dist/default/production/628A_Digit_Display_Test.X.production.o 

Object code version is 3.11

Machine type is 16F628A



                Name                               Link     Load   Length Selector   Space Scale
/tmp/xcXeAiLDa.o
                end_init                              0        0        1        0       0
                config                             2007     2007        1        0       4
dist/default/production/628A_Digit_Display_Test.X.production.o
                cinit                               7FE      7FE        2      FFC       0
                config                             2007     2007        1        0       4
                text4                               6B4      6B4       44      D68       0
                text3                               639      639       3A      C72       0
                text2                               6F8      6F8       67      DF0       0
                text1                               75F      75F       9F      EBE       0
                maintext                            673      673       41      CE6       0
                cstackBANK0                          20       20        C       20       1
                cstackCOMMON                         70       70        D       70       1
                strings                               1        1       11        2       0

TOTAL           Name                               Link     Load   Length     Space
        CLASS   CODE           
                end_init                              0        0        1         0
                cinit                               7FE      7FE        2         0
                text4                               6B4      6B4       44         0
                text3                               639      639       3A         0
                text2                               6F8      6F8       67         0
                text1                               75F      75F       9F         0
                maintext                            673      673       41         0

        CLASS   STRCODE        

        CLASS   STRING         
                strings                               1        1       11         0

        CLASS   CONST          

        CLASS   ENTRY          

        CLASS   COMMON         
                cstackCOMMON                         70       70        D         1

        CLASS   BANK0          
                cstackBANK0                          20       20        C         1

        CLASS   BANK1          

        CLASS   BANK2          

        CLASS   RAM            

        CLASS   ABS1           
                abs_s1                               7E       7E        2         1

        CLASS   SFR0           

        CLASS   SFR1           

        CLASS   SFR2           

        CLASS   SFR3           

        CLASS   CONFIG         
                config                             2007     2007        1         4

        CLASS   IDLOC          

        CLASS   EEDATA         

        CLASS   BANK3          

        CLASS   STACK          



SEGMENTS        Name                           Load    Length   Top    Selector   Space  Class     Delta

                text1                          00075F  00009F  0007FE       EBE       0  CODE        2
                text3                          000639  00003A  000673       C72       0  CODE        2
                strings                        000001  000011  000012         2       0  STRING      2
                maintext                       000673  000041  0006B4       CE6       0  CODE        2
                text2                          0006F8  000067  00075F       DF0       0  CODE        2
                text4                          0006B4  000044  0006F8       D68       0  CODE        2
                cstackBANK0                    000020  00000C  00002C        20       1  BANK0       1
                cinit                          0007FE  000002  000800       FFC       0  CODE        2
                reset_vec                      000000  000001  000001         0       0  CODE        2
                cstackCOMMON                   000070  00000D  00007D        70       1  COMMON      1


UNUSED ADDRESS RANGES

        Name                Unused          Largest block    Delta
        BANK0            002C-006F             44           1
        BANK1            00A0-00EF             50           1
        BANK2            0120-014F             30           1
        CODE             0012-0638            627           2
        COMMON           007D-007D              1           1
        CONST            0012-0638            100           2
        EEDATA           2100-217F             80           2
        ENTRY            0012-0638            100           2
        IDLOC            2000-2003              4           2
        RAM              002C-006F             44           1
                         00A0-00EF             50
                         0120-014F             30
        SFR0             0000-001F             20           1
        SFR1             0080-009F             20           1
        SFR2             0100-011F             20           1
        SFR3             0180-01EF             70           1
        STRCODE          0012-0638            627           2
        STRING           0012-0638            100           2

                                  Symbol Table

?___lwdiv                  cstackCOMMON 0070
?___lwmod                  cstackCOMMON 0070
?_descomponerEntero        cstackCOMMON 0078
_CMCONbits                 (abs)        001F
_DIGITOS                   strings      0007
_OPTION_REGbits            (abs)        0081
_PORTAbits                 (abs)        0005
_PORTB                     (abs)        0006
_TRISAbits                 (abs)        0085
_TRISB                     (abs)        0086
__Habs1                    abs1         0000
__Hbank0                   bank0        0000
__Hbank1                   bank1        0000
__Hbank2                   bank2        0000
__Hbank3                   bank3        0000
__Hcinit                   cinit        0800
__Hclrtext                 clrtext      0000
__Hcode                    code         0000
__Hcommon                  common       0000
__Hconfig                  config       2008
__HcstackBANK0             cstackBANK0  0000
__HcstackCOMMON            cstackCOMMON 0000
__Heeprom_data             eeprom_data  0000
__Hend_init                end_init     0001
__Hfunctab                 functab      0000
__Hinit                    init         0000
__Hintentry                intentry     0000
__Hmaintext                maintext     0000
__Hpowerup                 powerup      0000
__Hram                     ram          0000
__Hreset_vec               reset_vec    0000
__Hsfr0                    sfr0         0000
__Hsfr1                    sfr1         0000
__Hsfr2                    sfr2         0000
__Hsfr3                    sfr3         0000
__Hspace_0                 (abs)        0800
__Hspace_1                 (abs)        007D
__Hspace_2                 (abs)        0000
__Hspace_3                 (abs)        0000
__Hspace_4                 (abs)        400F
__Hstack                   stack        0000
__Hstrings                 strings      0000
__Htext                    text         0000
__Labs1                    abs1         0000
__Lbank0                   bank0        0000
__Lbank1                   bank1        0000
__Lbank2                   bank2        0000
__Lbank3                   bank3        0000
__Lcinit                   cinit        07FE
__Lclrtext                 clrtext      0000
__Lcode                    code         0000
__Lcommon                  common       0000
__Lconfig                  config       0000
__LcstackBANK0             cstackBANK0  0000
__LcstackCOMMON            cstackCOMMON 0000
__Leeprom_data             eeprom_data  0000
__Lend_init                end_init     0000
__Lfunctab                 functab      0000
__Linit                    init         0000
__Lintentry                intentry     0000
__Lmaintext                maintext     0000
__Lpowerup                 powerup      0000
__Lram                     ram          0000
__Lreset_vec               reset_vec    0000
__Lsfr0                    sfr0         0000
__Lsfr1                    sfr1         0000
__Lsfr2                    sfr2         0000
__Lsfr3                    sfr3         0000
__Lspace_0                 (abs)        0000
__Lspace_1                 (abs)        0000
__Lspace_2                 (abs)        0000
__Lspace_3                 (abs)        0000
__Lspace_4                 (abs)        0000
__Lstack                   stack        0000
__Lstrings                 strings      0000
__Ltext                    text         0000
__S0                       (abs)        0800
__S1                       (abs)        007D
__S3                       (abs)        0000
___int_sp                  stack        0000
___latbits                 (abs)        0000
___lwdiv                   text4        06B4
___lwdiv@counter           cstackCOMMON 0077
___lwdiv@dividend          cstackCOMMON 0072
___lwdiv@divisor           cstackCOMMON 0070
___lwdiv@quotient          cstackCOMMON 0075
___lwmod                   text3        0639
___lwmod@counter           cstackCOMMON 0075
___lwmod@dividend          cstackCOMMON 0072
___lwmod@divisor           cstackCOMMON 0070
___sp                      stack        0000
___stackhi                 (abs)        0000
___stacklo                 (abs)        0000
__end_of_DIGITOS           strings      0012
__end_of___lwdiv           text4        06F8
__end_of___lwmod           text3        0673
__end_of__initialization   cinit        07FE
__end_of__stringtab        strings      0007
__end_of_descomponerEntero text2        075F
__end_of_display           text1        07FE
__end_of_main              maintext     06B4
__initialization           cinit        07FE
__pcstackBANK0             cstackBANK0  0020
__pcstackCOMMON            cstackCOMMON 0070
__pmaintext                maintext     0673
__pstrings                 strings      0001
__ptext1                   text1        075F
__ptext2                   text2        06F8
__ptext3                   text3        0639
__ptext4                   text4        06B4
__stringbase               strings      0006
__stringtab                strings      0001
_descomponerEntero         text2        06F8
_display                   text1        075F
_main                      maintext     0673
btemp                      (abs)        007E
descomponerEntero@miEntero cstackBANK0  0020
descomponerEntero@numero   cstackCOMMON 0078
descomponerEntero@resto    cstackBANK0  0024
display@digito             cstackCOMMON 0070
display@digitoHex          cstackCOMMON 0074
display@posicion           cstackCOMMON 0073
end_of_initialization      cinit        07FE
intlevel0                  functab      0000
intlevel1                  functab      0000
intlevel2                  functab      0000
intlevel3                  functab      0000
intlevel4                  functab      0000
intlevel5                  functab      0000
main@miEntero              cstackBANK0  0028
reset_vec                  reset_vec    0000
start                      init         0000
start_initialization       cinit        07FE
wtemp0                     (abs)        007E


MODULE INFORMATION

Module		Function		Class		Link	Load	Size
/opt/microchip/xc8/v2.35/pic/sources/c90/common/lwmod.c
		___lwmod       		CODE           	0639	0000	58

/opt/microchip/xc8/v2.35/pic/sources/c90/common/lwmod.c estimated size: 58

/opt/microchip/xc8/v2.35/pic/sources/c90/common/lwdiv.c
		___lwdiv       		CODE           	06B4	0000	68

/opt/microchip/xc8/v2.35/pic/sources/c90/common/lwdiv.c estimated size: 68

shared
		__stringtab    		STRING         	0001	0000	6
		_DIGITOS       		STRING         	0007	0000	11
		__initialization		CODE           	07FE	0000	1

shared estimated size: 18

digit_display_test.c
		_display       		CODE           	075F	0000	159
		_main          		CODE           	0673	0000	65
		_descomponerEntero		CODE           	06F8	0000	103

digit_display_test.c estimated size: 327

